; Function Attrs: mustprogress nofree norecurse nosync nounwind willreturn memory(read, argmem: readwrite, inaccessiblemem: none) uwtable
define hidden range(i32 0, 2) i32 @CBS_get_u8_length_prefixed(ptr noundef captures(none) %0, ptr noundef writeonly captures(none) %1) local_unnamed_addr #9 {
  %3 = getelementptr inbounds nuw i8, ptr %0, i64 8
  %4 = load i64, ptr %3, align 8, !tbaa !13
  %5 = icmp eq i64 %4, 0
  br i1 %5, label %cbs_get_length_prefixed.exit, label %cbs_get.exit.i.i

cbs_get.exit.i.i:                                 ; preds = %2
  %6 = load ptr, ptr %0, align 8, !tbaa !6
  %7 = getelementptr inbounds nuw i8, ptr %6, i64 1
  store ptr %7, ptr %0, align 8, !tbaa !6
  %8 = add i64 %4, -1
  store i64 %8, ptr %3, align 8, !tbaa !13
  %9 = load i8, ptr %6, align 1, !tbaa !16
  %10 = zext i8 %9 to i64
  %11 = icmp ult i64 %8, %10
  br i1 %11, label %cbs_get_length_prefixed.exit, label %12

12:                                               ; preds = %cbs_get.exit.i.i
  %13 = getelementptr inbounds nuw i8, ptr %7, i64 %10
  store ptr %13, ptr %0, align 8, !tbaa !6
  %14 = sub nuw i64 %8, %10
  store i64 %14, ptr %3, align 8, !tbaa !13
  store ptr %7, ptr %1, align 8, !tbaa !6
  %15 = getelementptr inbounds nuw i8, ptr %1, i64 8
  store i64 %10, ptr %15, align 8, !tbaa !13
  br label %cbs_get_length_prefixed.exit

cbs_get_length_prefixed.exit:                     ; preds = %2, %cbs_get.exit.i.i, %12
  %.0.i = phi i32 [ 1, %12 ], [ 0, %cbs_get.exit.i.i ], [ 0, %2 ]
  ret i32 %.0.i
}